target datalayout = "e-m:e-p270:32:32-p271:32:32-p272:64:64-i64:64-i128:128-f80:128-n8:16:32:64-S128"
target triple = "x86_64-pc-linux-gnu"

@hf_x11_unused = internal global i32 0, align 4
@hf_x11_xinput_XIChangeProperty_deviceid = internal global i32 0, align 4
@hf_x11_xinput_XIChangeProperty_mode = internal global i32 0, align 4
@hf_x11_xinput_XIChangeProperty_format = internal global i32 0, align 4
@hf_x11_xinput_XIChangeProperty_property = internal global i32 0, align 4
@hf_x11_xinput_XIChangeProperty_type = internal global i32 0, align 4
@hf_x11_xinput_XIChangeProperty_num_items = internal global i32 0, align 4
@hf_x11_xinput_XIChangeProperty_8Bits_data8 = internal global i32 0, align 4
@hf_x11_xinput_XIChangeProperty_16Bits_data16 = internal global i32 0, align 4
@hf_x11_xinput_XIChangeProperty_16Bits_data16_item = internal global i32 0, align 4
@hf_x11_xinput_XIChangeProperty_32Bits_data32 = internal global i32 0, align 4
@hf_x11_xinput_XIChangeProperty_32Bits_data32_item = internal global i32 0, align 4
@ett_x11_list_of_card32 = internal global i32 0, align 4

; Function Attrs: null_pointer_is_valid sspstrong uwtable
define internal void @listOfCard32(ptr noundef %0, ptr noundef %1, ptr noundef %2, i32 noundef %3, i32 noundef %4, i32 noundef %5, i32 noundef %6) #1 {
  %8 = alloca ptr, align 8
  %9 = alloca ptr, align 8
  %10 = alloca ptr, align 8
  %11 = alloca i32, align 4
  %12 = alloca i32, align 4
  %13 = alloca i32, align 4
  %14 = alloca i32, align 4
  %15 = alloca ptr, align 8
  %16 = alloca ptr, align 8
  store ptr %0, ptr %8, align 8
  store ptr %1, ptr %9, align 8
  store ptr %2, ptr %10, align 8
  store i32 %3, ptr %11, align 4
  store i32 %4, ptr %12, align 4
  store i32 %5, ptr %13, align 4
  store i32 %6, ptr %14, align 4
  call void @llvm.lifetime.start.p0(i64 8, ptr %15) #11
  %17 = load ptr, ptr %10, align 8
  %18 = load i32, ptr %11, align 4
  %19 = load ptr, ptr %8, align 8
  %20 = load ptr, ptr %9, align 8
  %21 = load i32, ptr %20, align 4
  %22 = load i32, ptr %13, align 4
  %23 = mul i32 %22, 4
  %24 = load i32, ptr %14, align 4
  %25 = call ptr @proto_tree_add_item(ptr noundef %17, i32 noundef %18, ptr noundef %19, i32 noundef %21, i32 noundef %23, i32 noundef %24)
  store ptr %25, ptr %15, align 8
  call void @llvm.lifetime.start.p0(i64 8, ptr %16) #11
  %26 = load ptr, ptr %15, align 8
  %27 = load i32, ptr @ett_x11_list_of_card32, align 4
  %28 = call ptr @proto_item_add_subtree(ptr noundef %26, i32 noundef %27)
  store ptr %28, ptr %16, align 8
  br label %29

29:                                               ; preds = %33, %7
  %30 = load i32, ptr %13, align 4
  %31 = add i32 %30, -1
  store i32 %31, ptr %13, align 4
  %32 = icmp ne i32 %30, 0
  br i1 %32, label %33, label %44

33:                                               ; preds = %29
  %34 = load ptr, ptr %16, align 8
  %35 = load i32, ptr %12, align 4
  %36 = load ptr, ptr %8, align 8
  %37 = load ptr, ptr %9, align 8
  %38 = load i32, ptr %37, align 4
  %39 = load i32, ptr %14, align 4
  %40 = call ptr @proto_tree_add_item(ptr noundef %34, i32 noundef %35, ptr noundef %36, i32 noundef %38, i32 noundef 4, i32 noundef %39)
  %41 = load ptr, ptr %9, align 8
  %42 = load i32, ptr %41, align 4
  %43 = add i32 %42, 4
  store i32 %43, ptr %41, align 4
  br label %29, !llvm.loop !45

44:                                               ; preds = %29
  call void @llvm.lifetime.end.p0(i64 8, ptr %16) #11
  call void @llvm.lifetime.end.p0(i64 8, ptr %15) #11
  ret void
}

; Function Attrs: null_pointer_is_valid sspstrong uwtable
define internal void @listOfCard16(ptr noundef %0, ptr noundef %1, ptr noundef %2, i32 noundef %3, i32 noundef %4, i32 noundef %5, i32 noundef %6) #1 {
  %8 = alloca ptr, align 8
  %9 = alloca ptr, align 8
  %10 = alloca ptr, align 8
  %11 = alloca i32, align 4
  %12 = alloca i32, align 4
  %13 = alloca i32, align 4
  %14 = alloca i32, align 4
  %15 = alloca ptr, align 8
  %16 = alloca ptr, align 8
  store ptr %0, ptr %8, align 8
  store ptr %1, ptr %9, align 8
  store ptr %2, ptr %10, align 8
  store i32 %3, ptr %11, align 4
  store i32 %4, ptr %12, align 4
  store i32 %5, ptr %13, align 4
  store i32 %6, ptr %14, align 4
  call void @llvm.lifetime.start.p0(i64 8, ptr %15) #11
  %17 = load ptr, ptr %10, align 8
  %18 = load i32, ptr %11, align 4
  %19 = load ptr, ptr %8, align 8
  %20 = load ptr, ptr %9, align 8
  %21 = load i32, ptr %20, align 4
  %22 = load i32, ptr %13, align 4
  %23 = mul i32 %22, 2
  %24 = load i32, ptr %14, align 4
  %25 = call ptr @proto_tree_add_item(ptr noundef %17, i32 noundef %18, ptr noundef %19, i32 noundef %21, i32 noundef %23, i32 noundef %24)
  store ptr %25, ptr %15, align 8
  call void @llvm.lifetime.start.p0(i64 8, ptr %16) #11
  %26 = load ptr, ptr %15, align 8
  %27 = load i32, ptr @ett_x11_list_of_card32, align 4
  %28 = call ptr @proto_item_add_subtree(ptr noundef %26, i32 noundef %27)
  store ptr %28, ptr %16, align 8
  br label %29

29:                                               ; preds = %33, %7
  %30 = load i32, ptr %13, align 4
  %31 = add i32 %30, -1
  store i32 %31, ptr %13, align 4
  %32 = icmp ne i32 %30, 0
  br i1 %32, label %33, label %44

33:                                               ; preds = %29
  %34 = load ptr, ptr %16, align 8
  %35 = load i32, ptr %12, align 4
  %36 = load ptr, ptr %8, align 8
  %37 = load ptr, ptr %9, align 8
  %38 = load i32, ptr %37, align 4
  %39 = load i32, ptr %14, align 4
  %40 = call ptr @proto_tree_add_item(ptr noundef %34, i32 noundef %35, ptr noundef %36, i32 noundef %38, i32 noundef 2, i32 noundef %39)
  %41 = load ptr, ptr %9, align 8
  %42 = load i32, ptr %41, align 4
  %43 = add i32 %42, 2
  store i32 %43, ptr %41, align 4
  br label %29, !llvm.loop !44

44:                                               ; preds = %29
  call void @llvm.lifetime.end.p0(i64 8, ptr %16) #11
  call void @llvm.lifetime.end.p0(i64 8, ptr %15) #11
  ret void
}

; Function Attrs: null_pointer_is_valid sspstrong uwtable
define internal void @listOfByte(ptr noundef %0, ptr noundef %1, ptr noundef %2, i32 noundef %3, i32 noundef %4, i32 noundef %5) #1 {
  %7 = alloca ptr, align 8
  %8 = alloca ptr, align 8
  %9 = alloca ptr, align 8
  %10 = alloca i32, align 4
  %11 = alloca i32, align 4
  %12 = alloca i32, align 4
  store ptr %0, ptr %7, align 8
  store ptr %1, ptr %8, align 8
  store ptr %2, ptr %9, align 8
  store i32 %3, ptr %10, align 4
  store i32 %4, ptr %11, align 4
  store i32 %5, ptr %12, align 4
  %13 = load i32, ptr %11, align 4
  %14 = icmp sle i32 %13, 0
  br i1 %14, label %15, label %16

15:                                               ; preds = %6
  store i32 1, ptr %11, align 4
  br label %16

16:                                               ; preds = %15, %6
  %17 = load ptr, ptr %9, align 8
  %18 = load i32, ptr %10, align 4
  %19 = load ptr, ptr %7, align 8
  %20 = load ptr, ptr %8, align 8
  %21 = load i32, ptr %20, align 4
  %22 = load i32, ptr %11, align 4
  %23 = load i32, ptr %12, align 4
  %24 = call ptr @proto_tree_add_item(ptr noundef %17, i32 noundef %18, ptr noundef %19, i32 noundef %21, i32 noundef %22, i32 noundef %23)
  %25 = load i32, ptr %11, align 4
  %26 = load ptr, ptr %8, align 8
  %27 = load i32, ptr %26, align 4
  %28 = add i32 %27, %25
  store i32 %28, ptr %26, align 4
  ret void
}

; Function Attrs: null_pointer_is_valid sspstrong uwtable
define internal void @xinputXIChangeProperty(ptr noundef %0, ptr noundef %1, ptr noundef %2, ptr noundef %3, i32 noundef %4, i32 noundef %5) #1 {
  %7 = alloca ptr, align 8
  %8 = alloca ptr, align 8
  %9 = alloca ptr, align 8
  %10 = alloca ptr, align 8
  %11 = alloca i32, align 4
  %12 = alloca i32, align 4
  %13 = alloca i32, align 4
  %14 = alloca i32, align 4
  store ptr %0, ptr %7, align 8
  store ptr %1, ptr %8, align 8
  store ptr %2, ptr %9, align 8
  store ptr %3, ptr %10, align 8
  store i32 %4, ptr %11, align 4
  store i32 %5, ptr %12, align 4
  call void @llvm.lifetime.start.p0(i64 4, ptr %13) #11
  call void @llvm.lifetime.start.p0(i64 4, ptr %14) #11
  %15 = load ptr, ptr %7, align 8
  %16 = load ptr, ptr %9, align 8
  %17 = load ptr, ptr %10, align 8
  %18 = load i32, ptr @hf_x11_xinput_XIChangeProperty_deviceid, align 4
  %19 = load i32, ptr %11, align 4
  %20 = call i32 @field16(ptr noundef %15, ptr noundef %16, ptr noundef %17, i32 noundef %18, i32 noundef %19)
  %21 = load ptr, ptr %7, align 8
  %22 = load ptr, ptr %9, align 8
  %23 = load ptr, ptr %10, align 8
  %24 = load i32, ptr @hf_x11_xinput_XIChangeProperty_mode, align 4
  %25 = load i32, ptr %11, align 4
  %26 = call i32 @field8(ptr noundef %21, ptr noundef %22, ptr noundef %23, i32 noundef %24, i32 noundef %25)
  %27 = load ptr, ptr %7, align 8
  %28 = load ptr, ptr %9, align 8
  %29 = load ptr, ptr %10, align 8
  %30 = load i32, ptr @hf_x11_xinput_XIChangeProperty_format, align 4
  %31 = load i32, ptr %11, align 4
  %32 = call i32 @field8(ptr noundef %27, ptr noundef %28, ptr noundef %29, i32 noundef %30, i32 noundef %31)
  store i32 %32, ptr %13, align 4
  %33 = load ptr, ptr %10, align 8
  %34 = load i32, ptr @hf_x11_xinput_XIChangeProperty_property, align 4
  %35 = load ptr, ptr %7, align 8
  %36 = load ptr, ptr %9, align 8
  %37 = load i32, ptr %36, align 4
  %38 = load i32, ptr %11, align 4
  %39 = call ptr @proto_tree_add_item(ptr noundef %33, i32 noundef %34, ptr noundef %35, i32 noundef %37, i32 noundef 4, i32 noundef %38)
  %40 = load ptr, ptr %9, align 8
  %41 = load i32, ptr %40, align 4
  %42 = add i32 %41, 4
  store i32 %42, ptr %40, align 4
  %43 = load ptr, ptr %10, align 8
  %44 = load i32, ptr @hf_x11_xinput_XIChangeProperty_type, align 4
  %45 = load ptr, ptr %7, align 8
  %46 = load ptr, ptr %9, align 8
  %47 = load i32, ptr %46, align 4
  %48 = load i32, ptr %11, align 4
  %49 = call ptr @proto_tree_add_item(ptr noundef %43, i32 noundef %44, ptr noundef %45, i32 noundef %47, i32 noundef 4, i32 noundef %48)
  %50 = load ptr, ptr %9, align 8
  %51 = load i32, ptr %50, align 4
  %52 = add i32 %51, 4
  store i32 %52, ptr %50, align 4
  %53 = load ptr, ptr %7, align 8
  %54 = load ptr, ptr %9, align 8
  %55 = load i32, ptr %54, align 4
  %56 = load i32, ptr %11, align 4
  %57 = call i32 @tvb_get_uint32(ptr noundef %53, i32 noundef %55, i32 noundef %56)
  store i32 %57, ptr %14, align 4
  %58 = load ptr, ptr %10, align 8
  %59 = load i32, ptr @hf_x11_xinput_XIChangeProperty_num_items, align 4
  %60 = load ptr, ptr %7, align 8
  %61 = load ptr, ptr %9, align 8
  %62 = load i32, ptr %61, align 4
  %63 = load i32, ptr %11, align 4
  %64 = call ptr @proto_tree_add_item(ptr noundef %58, i32 noundef %59, ptr noundef %60, i32 noundef %62, i32 noundef 4, i32 noundef %63)
  %65 = load ptr, ptr %9, align 8
  %66 = load i32, ptr %65, align 4
  %67 = add i32 %66, 4
  store i32 %67, ptr %65, align 4
  %68 = load i32, ptr %13, align 4
  %69 = icmp eq i32 %68, 8
  br i1 %69, label %70, label %107

70:                                               ; preds = %6
  %71 = load ptr, ptr %7, align 8
  %72 = load ptr, ptr %9, align 8
  %73 = load ptr, ptr %10, align 8
  %74 = load i32, ptr @hf_x11_xinput_XIChangeProperty_8Bits_data8, align 4
  %75 = load i32, ptr %14, align 4
  %76 = load i32, ptr %11, align 4
  call void @listOfByte(ptr noundef %71, ptr noundef %72, ptr noundef %73, i32 noundef %74, i32 noundef %75, i32 noundef %76)
  %77 = load i32, ptr %14, align 4
  %78 = mul i32 %77, 1
  %79 = load i32, ptr %12, align 4
  %80 = sub i32 %79, %78
  store i32 %80, ptr %12, align 4
  %81 = load ptr, ptr %9, align 8
  %82 = load i32, ptr %81, align 4
  %83 = srem i32 %82, 4
  %84 = icmp ne i32 %83, 0
  br i1 %84, label %85, label %103

85:                                               ; preds = %70
  %86 = load ptr, ptr %10, align 8
  %87 = load i32, ptr @hf_x11_unused, align 4
  %88 = load ptr, ptr %7, align 8
  %89 = load ptr, ptr %9, align 8
  %90 = load i32, ptr %89, align 4
  %91 = load ptr, ptr %9, align 8
  %92 = load i32, ptr %91, align 4
  %93 = srem i32 %92, 4
  %94 = sub i32 4, %93
  %95 = call ptr @proto_tree_add_item(ptr noundef %86, i32 noundef %87, ptr noundef %88, i32 noundef %90, i32 noundef %94, i32 noundef 0)
  %96 = load ptr, ptr %9, align 8
  %97 = load i32, ptr %96, align 4
  %98 = srem i32 %97, 4
  %99 = sub i32 4, %98
  %100 = load ptr, ptr %9, align 8
  %101 = load i32, ptr %100, align 4
  %102 = add i32 %101, %99
  store i32 %102, ptr %100, align 4
  br label %103

103:                                              ; preds = %85, %70
  %104 = load i32, ptr %12, align 4
  %105 = add i32 %104, 3
  %106 = and i32 %105, -4
  store i32 %106, ptr %12, align 4
  br label %107

107:                                              ; preds = %103, %6
  %108 = load i32, ptr %13, align 4
  %109 = icmp eq i32 %108, 16
  br i1 %109, label %110, label %148

110:                                              ; preds = %107
  %111 = load ptr, ptr %7, align 8
  %112 = load ptr, ptr %9, align 8
  %113 = load ptr, ptr %10, align 8
  %114 = load i32, ptr @hf_x11_xinput_XIChangeProperty_16Bits_data16, align 4
  %115 = load i32, ptr @hf_x11_xinput_XIChangeProperty_16Bits_data16_item, align 4
  %116 = load i32, ptr %14, align 4
  %117 = load i32, ptr %11, align 4
  call void @listOfCard16(ptr noundef %111, ptr noundef %112, ptr noundef %113, i32 noundef %114, i32 noundef %115, i32 noundef %116, i32 noundef %117)
  %118 = load i32, ptr %14, align 4
  %119 = mul i32 %118, 2
  %120 = load i32, ptr %12, align 4
  %121 = sub i32 %120, %119
  store i32 %121, ptr %12, align 4
  %122 = load ptr, ptr %9, align 8
  %123 = load i32, ptr %122, align 4
  %124 = srem i32 %123, 4
  %125 = icmp ne i32 %124, 0
  br i1 %125, label %126, label %144

126:                                              ; preds = %110
  %127 = load ptr, ptr %10, align 8
  %128 = load i32, ptr @hf_x11_unused, align 4
  %129 = load ptr, ptr %7, align 8
  %130 = load ptr, ptr %9, align 8
  %131 = load i32, ptr %130, align 4
  %132 = load ptr, ptr %9, align 8
  %133 = load i32, ptr %132, align 4
  %134 = srem i32 %133, 4
  %135 = sub i32 4, %134
  %136 = call ptr @proto_tree_add_item(ptr noundef %127, i32 noundef %128, ptr noundef %129, i32 noundef %131, i32 noundef %135, i32 noundef 0)
  %137 = load ptr, ptr %9, align 8
  %138 = load i32, ptr %137, align 4
  %139 = srem i32 %138, 4
  %140 = sub i32 4, %139
  %141 = load ptr, ptr %9, align 8
  %142 = load i32, ptr %141, align 4
  %143 = add i32 %142, %140
  store i32 %143, ptr %141, align 4
  br label %144

144:                                              ; preds = %126, %110
  %145 = load i32, ptr %12, align 4
  %146 = add i32 %145, 3
  %147 = and i32 %146, -4
  store i32 %147, ptr %12, align 4
  br label %148

148:                                              ; preds = %144, %107
  %149 = load i32, ptr %13, align 4
  %150 = icmp eq i32 %149, 32
  br i1 %150, label %151, label %163

151:                                              ; preds = %148
  %152 = load ptr, ptr %7, align 8
  %153 = load ptr, ptr %9, align 8
  %154 = load ptr, ptr %10, align 8
  %155 = load i32, ptr @hf_x11_xinput_XIChangeProperty_32Bits_data32, align 4
  %156 = load i32, ptr @hf_x11_xinput_XIChangeProperty_32Bits_data32_item, align 4
  %157 = load i32, ptr %14, align 4
  %158 = load i32, ptr %11, align 4
  call void @listOfCard32(ptr noundef %152, ptr noundef %153, ptr noundef %154, i32 noundef %155, i32 noundef %156, i32 noundef %157, i32 noundef %158)
  %159 = load i32, ptr %14, align 4
  %160 = mul i32 %159, 4
  %161 = load i32, ptr %12, align 4
  %162 = sub i32 %161, %160
  store i32 %162, ptr %12, align 4
  br label %163

163:                                              ; preds = %151, %148
  call void @llvm.lifetime.end.p0(i64 4, ptr %14) #11
  call void @llvm.lifetime.end.p0(i64 4, ptr %13) #11
  ret void
}