; Function Attrs: null_pointer_is_valid sspstrong uwtable
define internal fastcc void @xinputXIChangeProperty(ptr noundef %0, ptr noundef captures(none) %1, ptr noundef %2, i32 noundef %3) unnamed_addr #1 {
  %5 = load i32, ptr @hf_x11_xinput_XIChangeProperty_deviceid, align 4
  %6 = tail call fastcc i32 @field16(ptr noundef %0, ptr noundef %1, ptr noundef %2, i32 noundef %5, i32 noundef %3)
  %7 = load i32, ptr @hf_x11_xinput_XIChangeProperty_mode, align 4
  %8 = tail call fastcc i32 @field8(ptr noundef %0, ptr noundef %1, ptr noundef %2, i32 noundef %7, i32 noundef %3)
  %9 = load i32, ptr @hf_x11_xinput_XIChangeProperty_format, align 4
  %10 = tail call fastcc i32 @field8(ptr noundef %0, ptr noundef %1, ptr noundef %2, i32 noundef %9, i32 noundef %3)
  %11 = load i32, ptr @hf_x11_xinput_XIChangeProperty_property, align 4
  %12 = load i32, ptr %1, align 4
  %13 = tail call ptr @proto_tree_add_item(ptr noundef %2, i32 noundef %11, ptr noundef %0, i32 noundef %12, i32 noundef 4, i32 noundef %3)
  %14 = load i32, ptr %1, align 4
  %15 = add i32 %14, 4
  store i32 %15, ptr %1, align 4
  %16 = load i32, ptr @hf_x11_xinput_XIChangeProperty_type, align 4
  %17 = tail call ptr @proto_tree_add_item(ptr noundef %2, i32 noundef %16, ptr noundef %0, i32 noundef %15, i32 noundef 4, i32 noundef %3)
  %18 = load i32, ptr %1, align 4
  %19 = add i32 %18, 4
  store i32 %19, ptr %1, align 4
  %20 = tail call i32 @tvb_get_uint32(ptr noundef %0, i32 noundef %19, i32 noundef %3)
  %21 = load i32, ptr @hf_x11_xinput_XIChangeProperty_num_items, align 4
  %22 = load i32, ptr %1, align 4
  %23 = tail call ptr @proto_tree_add_item(ptr noundef %2, i32 noundef %21, ptr noundef %0, i32 noundef %22, i32 noundef 4, i32 noundef %3)
  %24 = load i32, ptr %1, align 4
  %25 = add i32 %24, 4
  store i32 %25, ptr %1, align 4
  %trunc = trunc nuw i32 %10 to i8
  switch i8 %trunc, label %listOfCard32.exit [
    i8 8, label %26
    i8 16, label %32
    i8 32, label %46
  ]

26:                                               ; preds = %4
  %27 = load i32, ptr @hf_x11_xinput_XIChangeProperty_8Bits_data8, align 4
  %spec.store.select.i = tail call i32 @llvm.smax.i32(i32 %20, i32 1)
  %28 = tail call ptr @proto_tree_add_item(ptr noundef %2, i32 noundef %27, ptr noundef %0, i32 noundef %25, i32 noundef %spec.store.select.i, i32 noundef %3)
  %29 = load i32, ptr %1, align 4
  %30 = add i32 %29, %spec.store.select.i
  store i32 %30, ptr %1, align 4
  %31 = srem i32 %30, 4
  %.not = icmp eq i32 %31, 0
  br i1 %.not, label %listOfCard32.exit, label %listOfCard32.exit.sink.split

32:                                               ; preds = %4
  %33 = load i32, ptr @hf_x11_xinput_XIChangeProperty_16Bits_data16, align 4
  %34 = load i32, ptr @hf_x11_xinput_XIChangeProperty_16Bits_data16_item, align 4
  %35 = shl i32 %20, 1
  %36 = tail call ptr @proto_tree_add_item(ptr noundef %2, i32 noundef %33, ptr noundef %0, i32 noundef %25, i32 noundef %35, i32 noundef %3)
  %37 = load i32, ptr @ett_x11_list_of_card32, align 4
  %38 = tail call ptr @proto_item_add_subtree(ptr noundef %36, i32 noundef %37)
  %.not13.i = icmp eq i32 %20, 0
  %.pre = load i32, ptr %1, align 4
  br i1 %.not13.i, label %listOfCard16.exit, label %.lr.ph.i

.lr.ph.i:                                         ; preds = %32, %.lr.ph.i
  %39 = phi i32 [ %43, %.lr.ph.i ], [ %.pre, %32 ]
  %.014.i = phi i32 [ %40, %.lr.ph.i ], [ %20, %32 ]
  %40 = add i32 %.014.i, -1
  %41 = tail call ptr @proto_tree_add_item(ptr noundef %38, i32 noundef %34, ptr noundef %0, i32 noundef %39, i32 noundef 2, i32 noundef %3)
  %42 = load i32, ptr %1, align 4
  %43 = add i32 %42, 2
  store i32 %43, ptr %1, align 4
  %.not.i = icmp eq i32 %40, 0
  br i1 %.not.i, label %listOfCard16.exit, label %.lr.ph.i, !llvm.loop !43

listOfCard16.exit:                                ; preds = %.lr.ph.i, %32
  %44 = phi i32 [ %.pre, %32 ], [ %43, %.lr.ph.i ]
  %45 = srem i32 %44, 4
  %.not71 = icmp eq i32 %45, 0
  br i1 %.not71, label %listOfCard32.exit, label %listOfCard32.exit.sink.split

46:                                               ; preds = %4
  %47 = load i32, ptr @hf_x11_xinput_XIChangeProperty_32Bits_data32, align 4
  %48 = load i32, ptr @hf_x11_xinput_XIChangeProperty_32Bits_data32_item, align 4
  %49 = shl i32 %20, 2
  %50 = tail call ptr @proto_tree_add_item(ptr noundef %2, i32 noundef %47, ptr noundef %0, i32 noundef %25, i32 noundef %49, i32 noundef %3)
  %51 = load i32, ptr @ett_x11_list_of_card32, align 4
  %52 = tail call ptr @proto_item_add_subtree(ptr noundef %50, i32 noundef %51)
  %.not13.i73 = icmp eq i32 %20, 0
  br i1 %.not13.i73, label %listOfCard32.exit, label %.lr.ph.preheader.i74

.lr.ph.preheader.i74:                             ; preds = %46
  %.pre.i75 = load i32, ptr %1, align 4
  br label %.lr.ph.i76

.lr.ph.i76:                                       ; preds = %.lr.ph.i76, %.lr.ph.preheader.i74
  %53 = phi i32 [ %57, %.lr.ph.i76 ], [ %.pre.i75, %.lr.ph.preheader.i74 ]
  %.014.i77 = phi i32 [ %54, %.lr.ph.i76 ], [ %20, %.lr.ph.preheader.i74 ]
  %54 = add i32 %.014.i77, -1
  %55 = tail call ptr @proto_tree_add_item(ptr noundef %52, i32 noundef %48, ptr noundef %0, i32 noundef %53, i32 noundef 4, i32 noundef %3)
  %56 = load i32, ptr %1, align 4
  %57 = add i32 %56, 4
  store i32 %57, ptr %1, align 4
  %.not.i78 = icmp eq i32 %54, 0
  br i1 %.not.i78, label %listOfCard32.exit, label %.lr.ph.i76, !llvm.loop !44

listOfCard32.exit.sink.split:                     ; preds = %listOfCard16.exit, %26
  %.sink6 = phi i32 [ %31, %26 ], [ %45, %listOfCard16.exit ]
  %.sink4 = phi i32 [ %30, %26 ], [ %44, %listOfCard16.exit ]
  %58 = load i32, ptr @hf_x11_unused, align 4
  %59 = sub nsw i32 4, %.sink6
  %60 = tail call ptr @proto_tree_add_item(ptr noundef %2, i32 noundef %58, ptr noundef %0, i32 noundef %.sink4, i32 noundef %59, i32 noundef 0)
  %61 = load i32, ptr %1, align 4
  %62 = srem i32 %61, 4
  %reass.sub72 = add i32 %61, 4
  %63 = sub i32 %reass.sub72, %62
  store i32 %63, ptr %1, align 4
  br label %listOfCard32.exit

listOfCard32.exit:                                ; preds = %.lr.ph.i76, %listOfCard32.exit.sink.split, %listOfCard16.exit, %46, %26, %4
  ret void
}